Certificate:
    Data:
        Version: 3 (0x2)
        Serial Number: 1 (0x1)
    Signature Algorithm: sha1WithRSAEncryption
        Issuer: CN=onePK simpleCA
        Validity
            Not Before: Dec 10 00:00:00 2012 GMT
            Not After : Dec 10 00:00:00 2030 GMT
        Subject: CN=onePK simpleCA
        Subject Public Key Info:
            Public Key Algorithm: rsaEncryption
                Public-Key: (2048 bit)
                Modulus:
                    00:a6:16:07:75:41:2a:c3:9d:dc:e3:b7:b1:9e:11:
                    30:28:42:d7:45:9a:81:0c:10:c7:8f:2a:67:70:f3:
                    a8:7d:51:ad:8c:11:d0:94:13:44:4a:45:c6:9a:b4:
                    be:96:fd:93:ee:cd:8f:f5:fa:a4:57:c7:ec:4d:e9:
                    5e:36:35:bd:98:f2:c0:7d:c7:27:89:95:4a:cc:b5:
                    9a:39:08:f6:55:b1:57:dc:11:72:4b:73:fc:0c:1e:
                    f2:00:7c:55:15:b6:a8:77:f9:42:c8:59:48:7e:ef:
                    eb:4b:b9:62:4e:aa:a0:33:10:a3:4b:f6:3f:8a:d9:
                    a3:30:08:26:cc:bb:48:7c:58:6c:ba:56:01:6e:00:
                    78:07:22:fc:61:f2:1e:fe:b9:8f:f0:f6:59:b6:8b:
                    e6:ba:77:66:de:e1:ee:ef:fb:74:e4:fe:40:06:6f:
                    07:f9:c5:3b:72:3e:2f:6b:97:6f:5b:f7:5d:98:46:
                    2d:ad:8b:82:e6:f8:90:ed:87:b7:31:95:2f:9e:40:
                    fb:0f:20:14:4e:2e:ec:4f:c5:94:ec:17:ff:7c:e3:
                    11:96:0b:ee:7a:69:d2:7b:82:cc:4a:cc:6c:76:e2:
                    c9:6c:cd:35:27:4d:7e:bf:b9:82:d9:5b:26:20:f7:
                    6d:8a:db:9f:25:3d:76:02:f2:24:4b:6c:3f:24:2a:
                    71:bf
                Exponent: 65537 (0x10001)
        X509v3 extensions:
            X509v3 Basic Constraints: critical
                CA:TRUE
            X509v3 Subject Key Identifier: 
                92:BF:86:84:84:09:E7:F5:67:9A:9F:EE:41:9E:4B:07:AB:EF:E3:DC
            X509v3 Key Usage: critical
                Certificate Sign, CRL Sign
    Signature Algorithm: sha1WithRSAEncryption
         40:0a:d2:f7:fb:95:27:dd:43:de:f6:2b:85:60:ae:a0:ef:73:
         f7:39:26:7e:7a:3c:0e:23:8e:f2:ab:f5:0d:45:a7:f8:88:89:
         17:75:a3:43:53:e4:f1:e0:2d:04:12:4c:b6:24:43:50:c3:3a:
         54:a0:26:5d:e8:c9:e2:d3:06:b5:f8:90:27:3a:d3:f4:99:1b:
         e4:cc:a4:0a:c0:ba:46:54:3d:77:66:65:40:4c:6e:0d:5d:5a:
         b7:f9:fb:e4:9b:c7:4c:c1:b6:0e:9e:a6:6a:bf:ff:0b:58:6f:
         aa:7c:5d:35:88:39:32:43:1c:d5:5d:ae:ce:3b:e7:f0:ed:5a:
         5a:76:a6:88:d9:6a:a5:34:fa:26:85:16:ea:95:34:42:04:cd:
         05:92:00:80:f9:b1:a5:f1:7b:80:0d:e5:f7:41:b0:b0:9e:13:
         f5:0a:b3:92:a3:3d:5c:d8:52:d1:fd:6a:fa:b3:7b:4e:1e:c8:
         d2:69:c0:82:c6:dc:ea:4a:1e:9e:79:15:9f:98:60:d7:78:8a:
         f1:0d:71:9a:85:03:09:80:6f:a2:20:9e:b8:fb:7a:56:b1:9d:
         bf:c0:f8:74:ed:07:53:51:0e:2e:d8:2b:99:05:ba:69:e2:8e:
         3b:56:e1:da:f8:cd:9f:e4:b9:4d:b2:3c:22:81:14:e8:f5:df:
         88:fb:5a:f7
-----BEGIN CERTIFICATE-----
MIIC7zCCAdegAwIBAgIBATANBgkqhkiG9w0BAQUFADAZMRcwFQYDVQQDEw5vbmVQ
SyBzaW1wbGVDQTAeFw0xMjEyMTAwMDAwMDBaFw0zMDEyMTAwMDAwMDBaMBkxFzAV
BgNVBAMTDm9uZVBLIHNpbXBsZUNBMIIBIjANBgkqhkiG9w0BAQEFAAOCAQ8AMIIB
CgKCAQEAphYHdUEqw53c47exnhEwKELXRZqBDBDHjypncPOofVGtjBHQlBNESkXG
mrS+lv2T7s2P9fqkV8fsTeleNjW9mPLAfccniZVKzLWaOQj2VbFX3BFyS3P8DB7y
AHxVFbaod/lCyFlIfu/rS7liTqqgMxCjS/Y/itmjMAgmzLtIfFhsulYBbgB4ByL8
YfIe/rmP8PZZtovmundm3uHu7/t05P5ABm8H+cU7cj4va5dvW/ddmEYtrYuC5viQ
7Ye3MZUvnkD7DyAUTi7sT8WU7Bf/fOMRlgvuemnSe4LMSsxsduLJbM01J01+v7mC
2VsmIPdtitufJT12AvIkS2w/JCpxvwIDAQABo0IwQDAPBgNVHRMBAf8EBTADAQH/
MB0GA1UdDgQWBBSSv4aEhAnn9Wean+5BnksHq+/j3DAOBgNVHQ8BAf8EBAMCAQYw
DQYJKoZIhvcNAQEFBQADggEBAEAK0vf7lSfdQ972K4VgrqDvc/c5Jn56PA4jjvKr
9Q1Fp/iIiRd1o0NT5PHgLQQSTLYkQ1DDOlSgJl3oyeLTBrX4kCc60/SZG+TMpArA
ukZUPXdmZUBMbg1dWrf5++Sbx0zBtg6epmq//wtYb6p8XTWIOTJDHNVdrs475/Dt
Wlp2pojZaqU0+iaFFuqVNEIEzQWSAID5saXxe4AN5fdBsLCeE/UKs5KjPVzYUtH9
avqze04eyNJpwILG3OpKHp55FZ+YYNd4ivENcZqFAwmAb6Ignrj7elaxnb/A+HTt
B1NRDi7YK5kFumnijjtW4dr4zZ/kuU2yPCKBFOj134j7Wvc=
-----END CERTIFICATE-----
